; Function Attrs: mustprogress uwtable
define dso_local void @_ZN4Luau4Json11JsonEmitter8newChunkEv(ptr noundef nonnull align 8 dereferenceable(32) %0) local_unnamed_addr #0 align 2 personality ptr @__gxx_personality_v0 {
  %2 = getelementptr inbounds nuw i8, ptr %0, i64 16
  %3 = load ptr, ptr %2, align 8, !tbaa !29
  %4 = getelementptr inbounds nuw i8, ptr %0, i64 24
  %5 = load ptr, ptr %4, align 8, !tbaa !30
  %.not.i = icmp eq ptr %3, %5
  br i1 %.not.i, label %11, label %6

6:                                                ; preds = %1
  %7 = getelementptr inbounds nuw i8, ptr %3, i64 16
  store ptr %7, ptr %3, align 8, !tbaa !31
  %8 = getelementptr inbounds nuw i8, ptr %3, i64 8
  store i64 0, ptr %8, align 8, !tbaa !34
  store i8 0, ptr %7, align 1, !tbaa !23
  %9 = load ptr, ptr %2, align 8, !tbaa !29
  %10 = getelementptr inbounds nuw i8, ptr %9, i64 32
  store ptr %10, ptr %2, align 8, !tbaa !29
  br label %_ZNSt6vectorINSt7__cxx1112basic_stringIcSt11char_traitsIcESaIcEEESaIS5_EE12emplace_backIJEEERS5_DpOT_.exit

11:                                               ; preds = %1
  %12 = getelementptr inbounds nuw i8, ptr %0, i64 8
  tail call void @_ZNSt6vectorINSt7__cxx1112basic_stringIcSt11char_traitsIcESaIcEEESaIS5_EE17_M_realloc_insertIJEEEvN9__gnu_cxx17__normal_iteratorIPS5_S7_EEDpOT_(ptr noundef nonnull align 8 dereferenceable(24) %12, ptr %3)
  %.pre = load ptr, ptr %2, align 8, !tbaa !28
  br label %_ZNSt6vectorINSt7__cxx1112basic_stringIcSt11char_traitsIcESaIcEEESaIS5_EE12emplace_backIJEEERS5_DpOT_.exit

_ZNSt6vectorINSt7__cxx1112basic_stringIcSt11char_traitsIcESaIcEEESaIS5_EE12emplace_backIJEEERS5_DpOT_.exit: ; preds = %6, %11
  %13 = phi ptr [ %10, %6 ], [ %.pre, %11 ]
  %14 = getelementptr inbounds i8, ptr %13, i64 -32
  tail call void @_ZNSt7__cxx1112basic_stringIcSt11char_traitsIcESaIcEE7reserveEm(ptr noundef nonnull align 8 dereferenceable(32) %14, i64 noundef 1024)
  ret void
}